target datalayout = "e-m:e-p270:32:32-p271:32:32-p272:64:64-i64:64-i128:128-f80:128-n8:16:32:64-S128"
target triple = "x86_64-pc-linux-gnu"

%struct.async = type { ptr, ptr, i32, i32, i64, i32, i32, i32 }

@main_thread_set = internal global i32 0, align 4
@main_thread = internal global i64 0, align 8
@.str.11 = private unnamed_addr constant [19 x i8] c"cannot create pipe\00", align 1
@async_key = internal global i32 0, align 4
@async_die_counter = internal global i32 0, align 4
@.str.12 = private unnamed_addr constant [31 x i8] c"cannot create async thread: %s\00", align 1
@.str.67 = private unnamed_addr constant [1 x i8] zeroinitializer, align 1
@git_gettext_enabled = external global i32, align 4

; Function Attrs: inlinehint nounwind uwtable
define internal ptr @_(ptr noundef %0) #7 {
  %2 = alloca ptr, align 8
  %3 = alloca ptr, align 8
  store ptr %0, ptr %3, align 8, !tbaa !9
  %4 = load ptr, ptr %3, align 8, !tbaa !9
  %5 = load i8, ptr %4, align 1, !tbaa !17
  %6 = icmp ne i8 %5, 0
  br i1 %6, label %8, label %7

7:                                                ; preds = %1
  store ptr @.str.67, ptr %2, align 8
  br label %16

8:                                                ; preds = %1
  %9 = load i32, ptr @git_gettext_enabled, align 4, !tbaa !16
  %10 = icmp ne i32 %9, 0
  br i1 %10, label %13, label %11

11:                                               ; preds = %8
  %12 = load ptr, ptr %3, align 8, !tbaa !9
  store ptr %12, ptr %2, align 8
  br label %16

13:                                               ; preds = %8
  %14 = load ptr, ptr %3, align 8, !tbaa !9
  %15 = call ptr @dcgettext(ptr noundef null, ptr noundef %14, i32 noundef 5) #13
  store ptr %15, ptr %2, align 8
  br label %16

16:                                               ; preds = %13, %11, %7
  %17 = load ptr, ptr %2, align 8
  ret ptr %17
}

; Function Attrs: inlinehint nounwind uwtable
define internal void @set_cloexec(i32 noundef %0) #7 {
  %2 = alloca i32, align 4
  %3 = alloca i32, align 4
  store i32 %0, ptr %2, align 4, !tbaa !16
  call void @llvm.lifetime.start.p0(i64 4, ptr %3) #13
  %4 = load i32, ptr %2, align 4, !tbaa !16
  %5 = call i32 (i32, i32, ...) @fcntl64(i32 noundef %4, i32 noundef 1)
  store i32 %5, ptr %3, align 4, !tbaa !16
  %6 = load i32, ptr %3, align 4, !tbaa !16
  %7 = icmp sge i32 %6, 0
  br i1 %7, label %8, label %13

8:                                                ; preds = %1
  %9 = load i32, ptr %2, align 4, !tbaa !16
  %10 = load i32, ptr %3, align 4, !tbaa !16
  %11 = or i32 %10, 1
  %12 = call i32 (i32, i32, ...) @fcntl64(i32 noundef %9, i32 noundef 2, i32 noundef %11)
  br label %13

13:                                               ; preds = %8, %1
  call void @llvm.lifetime.end.p0(i64 4, ptr %3) #13
  ret void
}

; Function Attrs: inlinehint nounwind uwtable
define internal void @close_pair(ptr noundef %0) #7 {
  %2 = alloca ptr, align 8
  store ptr %0, ptr %2, align 8, !tbaa !54
  %3 = load ptr, ptr %2, align 8, !tbaa !54
  %4 = getelementptr inbounds i32, ptr %3, i64 0
  %5 = load i32, ptr %4, align 4, !tbaa !16
  %6 = call i32 @close(i32 noundef %5)
  %7 = load ptr, ptr %2, align 8, !tbaa !54
  %8 = getelementptr inbounds i32, ptr %7, i64 1
  %9 = load i32, ptr %8, align 4, !tbaa !16
  %10 = call i32 @close(i32 noundef %9)
  ret void
}

; Function Attrs: inlinehint nounwind uwtable
define internal i32 @const_error() #7 {
  ret i32 -1
}

; Function Attrs: nounwind uwtable
define dso_local i32 @start_async(ptr noundef %0) #0 {
  %2 = alloca i32, align 4
  %3 = alloca ptr, align 8
  %4 = alloca i32, align 4
  %5 = alloca i32, align 4
  %6 = alloca [2 x i32], align 4
  %7 = alloca [2 x i32], align 4
  %8 = alloca i32, align 4
  %9 = alloca i32, align 4
  %10 = alloca i32, align 4
  %11 = alloca i32, align 4
  store ptr %0, ptr %3, align 8, !tbaa !92
  call void @llvm.lifetime.start.p0(i64 4, ptr %4) #13
  call void @llvm.lifetime.start.p0(i64 4, ptr %5) #13
  call void @llvm.lifetime.start.p0(i64 8, ptr %6) #13
  call void @llvm.lifetime.start.p0(i64 8, ptr %7) #13
  call void @llvm.lifetime.start.p0(i64 4, ptr %8) #13
  call void @llvm.lifetime.start.p0(i64 4, ptr %9) #13
  %12 = load ptr, ptr %3, align 8, !tbaa !92
  %13 = getelementptr inbounds nuw %struct.async, ptr %12, i32 0, i32 2
  %14 = load i32, ptr %13, align 8, !tbaa !94
  %15 = icmp slt i32 %14, 0
  %16 = zext i1 %15 to i32
  store i32 %16, ptr %4, align 4, !tbaa !16
  %17 = load i32, ptr %4, align 4, !tbaa !16
  %18 = icmp ne i32 %17, 0
  br i1 %18, label %19, label %41

19:                                               ; preds = %1
  %20 = getelementptr inbounds [2 x i32], ptr %6, i64 0, i64 0
  %21 = call i32 @pipe(ptr noundef %20) #13
  %22 = icmp slt i32 %21, 0
  br i1 %22, label %23, label %36

23:                                               ; preds = %19
  %24 = load ptr, ptr %3, align 8, !tbaa !92
  %25 = getelementptr inbounds nuw %struct.async, ptr %24, i32 0, i32 3
  %26 = load i32, ptr %25, align 4, !tbaa !96
  %27 = icmp sgt i32 %26, 0
  br i1 %27, label %28, label %33

28:                                               ; preds = %23
  %29 = load ptr, ptr %3, align 8, !tbaa !92
  %30 = getelementptr inbounds nuw %struct.async, ptr %29, i32 0, i32 3
  %31 = load i32, ptr %30, align 4, !tbaa !96
  %32 = call i32 @close(i32 noundef %31)
  br label %33

33:                                               ; preds = %28, %23
  %34 = call i32 (ptr, ...) @error_errno(ptr noundef @.str.11)
  %35 = call i32 @const_error()
  store i32 %35, ptr %2, align 4
  store i32 1, ptr %10, align 4
  br label %184

36:                                               ; preds = %19
  %37 = getelementptr inbounds [2 x i32], ptr %6, i64 0, i64 1
  %38 = load i32, ptr %37, align 4, !tbaa !16
  %39 = load ptr, ptr %3, align 8, !tbaa !92
  %40 = getelementptr inbounds nuw %struct.async, ptr %39, i32 0, i32 2
  store i32 %38, ptr %40, align 8, !tbaa !94
  br label %41

41:                                               ; preds = %36, %1
  %42 = load ptr, ptr %3, align 8, !tbaa !92
  %43 = getelementptr inbounds nuw %struct.async, ptr %42, i32 0, i32 3
  %44 = load i32, ptr %43, align 4, !tbaa !96
  %45 = icmp slt i32 %44, 0
  %46 = zext i1 %45 to i32
  store i32 %46, ptr %5, align 4, !tbaa !16
  %47 = load i32, ptr %5, align 4, !tbaa !16
  %48 = icmp ne i32 %47, 0
  br i1 %48, label %49, label %77

49:                                               ; preds = %41
  %50 = getelementptr inbounds [2 x i32], ptr %7, i64 0, i64 0
  %51 = call i32 @pipe(ptr noundef %50) #13
  %52 = icmp slt i32 %51, 0
  br i1 %52, label %53, label %72

53:                                               ; preds = %49
  %54 = load i32, ptr %4, align 4, !tbaa !16
  %55 = icmp ne i32 %54, 0
  br i1 %55, label %56, label %58

56:                                               ; preds = %53
  %57 = getelementptr inbounds [2 x i32], ptr %6, i64 0, i64 0
  call void @close_pair(ptr noundef %57)
  br label %69

58:                                               ; preds = %53
  %59 = load ptr, ptr %3, align 8, !tbaa !92
  %60 = getelementptr inbounds nuw %struct.async, ptr %59, i32 0, i32 2
  %61 = load i32, ptr %60, align 8, !tbaa !94
  %62 = icmp ne i32 %61, 0
  br i1 %62, label %63, label %68

63:                                               ; preds = %58
  %64 = load ptr, ptr %3, align 8, !tbaa !92
  %65 = getelementptr inbounds nuw %struct.async, ptr %64, i32 0, i32 2
  %66 = load i32, ptr %65, align 8, !tbaa !94
  %67 = call i32 @close(i32 noundef %66)
  br label %68

68:                                               ; preds = %63, %58
  br label %69

69:                                               ; preds = %68, %56
  %70 = call i32 (ptr, ...) @error_errno(ptr noundef @.str.11)
  %71 = call i32 @const_error()
  store i32 %71, ptr %2, align 4
  store i32 1, ptr %10, align 4
  br label %184

72:                                               ; preds = %49
  %73 = getelementptr inbounds [2 x i32], ptr %7, i64 0, i64 0
  %74 = load i32, ptr %73, align 4, !tbaa !16
  %75 = load ptr, ptr %3, align 8, !tbaa !92
  %76 = getelementptr inbounds nuw %struct.async, ptr %75, i32 0, i32 3
  store i32 %74, ptr %76, align 4, !tbaa !96
  br label %77

77:                                               ; preds = %72, %41
  %78 = load i32, ptr %4, align 4, !tbaa !16
  %79 = icmp ne i32 %78, 0
  br i1 %79, label %80, label %83

80:                                               ; preds = %77
  %81 = getelementptr inbounds [2 x i32], ptr %6, i64 0, i64 0
  %82 = load i32, ptr %81, align 4, !tbaa !16
  store i32 %82, ptr %8, align 4, !tbaa !16
  br label %94

83:                                               ; preds = %77
  %84 = load ptr, ptr %3, align 8, !tbaa !92
  %85 = getelementptr inbounds nuw %struct.async, ptr %84, i32 0, i32 2
  %86 = load i32, ptr %85, align 8, !tbaa !94
  %87 = icmp ne i32 %86, 0
  br i1 %87, label %88, label %92

88:                                               ; preds = %83
  %89 = load ptr, ptr %3, align 8, !tbaa !92
  %90 = getelementptr inbounds nuw %struct.async, ptr %89, i32 0, i32 2
  %91 = load i32, ptr %90, align 8, !tbaa !94
  store i32 %91, ptr %8, align 4, !tbaa !16
  br label %93

92:                                               ; preds = %83
  store i32 -1, ptr %8, align 4, !tbaa !16
  br label %93

93:                                               ; preds = %92, %88
  br label %94

94:                                               ; preds = %93, %80
  %95 = load i32, ptr %5, align 4, !tbaa !16
  %96 = icmp ne i32 %95, 0
  br i1 %96, label %97, label %100

97:                                               ; preds = %94
  %98 = getelementptr inbounds [2 x i32], ptr %7, i64 0, i64 1
  %99 = load i32, ptr %98, align 4, !tbaa !16
  store i32 %99, ptr %9, align 4, !tbaa !16
  br label %111

100:                                              ; preds = %94
  %101 = load ptr, ptr %3, align 8, !tbaa !92
  %102 = getelementptr inbounds nuw %struct.async, ptr %101, i32 0, i32 3
  %103 = load i32, ptr %102, align 4, !tbaa !96
  %104 = icmp ne i32 %103, 0
  br i1 %104, label %105, label %109

105:                                              ; preds = %100
  %106 = load ptr, ptr %3, align 8, !tbaa !92
  %107 = getelementptr inbounds nuw %struct.async, ptr %106, i32 0, i32 3
  %108 = load i32, ptr %107, align 4, !tbaa !96
  store i32 %108, ptr %9, align 4, !tbaa !16
  br label %110

109:                                              ; preds = %100
  store i32 -1, ptr %9, align 4, !tbaa !16
  br label %110

110:                                              ; preds = %109, %105
  br label %111

111:                                              ; preds = %110, %97
  %112 = load i32, ptr @main_thread_set, align 4, !tbaa !16
  %113 = icmp ne i32 %112, 0
  br i1 %113, label %118, label %114

114:                                              ; preds = %111
  store i32 1, ptr @main_thread_set, align 4, !tbaa !16
  %115 = call i64 @pthread_self() #15
  store i64 %115, ptr @main_thread, align 8, !tbaa !91
  %116 = call i32 @pthread_key_create(ptr noundef @async_key, ptr noundef null) #13
  %117 = call i32 @pthread_key_create(ptr noundef @async_die_counter, ptr noundef null) #13
  call void @set_die_routine(ptr noundef @die_async)
  call void @set_die_is_recursing_routine(ptr noundef @async_die_is_recursing)
  br label %118

118:                                              ; preds = %114, %111
  %119 = load i32, ptr %8, align 4, !tbaa !16
  %120 = icmp sge i32 %119, 0
  br i1 %120, label %121, label %123

121:                                              ; preds = %118
  %122 = load i32, ptr %8, align 4, !tbaa !16
  call void @set_cloexec(i32 noundef %122)
  br label %123

123:                                              ; preds = %121, %118
  %124 = load i32, ptr %9, align 4, !tbaa !16
  %125 = icmp sge i32 %124, 0
  br i1 %125, label %126, label %128

126:                                              ; preds = %123
  %127 = load i32, ptr %9, align 4, !tbaa !16
  call void @set_cloexec(i32 noundef %127)
  br label %128

128:                                              ; preds = %126, %123
  %129 = load i32, ptr %8, align 4, !tbaa !16
  %130 = load ptr, ptr %3, align 8, !tbaa !92
  %131 = getelementptr inbounds nuw %struct.async, ptr %130, i32 0, i32 5
  store i32 %129, ptr %131, align 8, !tbaa !97
  %132 = load i32, ptr %9, align 4, !tbaa !16
  %133 = load ptr, ptr %3, align 8, !tbaa !92
  %134 = getelementptr inbounds nuw %struct.async, ptr %133, i32 0, i32 6
  store i32 %132, ptr %134, align 4, !tbaa !98
  call void @llvm.lifetime.start.p0(i64 4, ptr %11) #13
  %135 = load ptr, ptr %3, align 8, !tbaa !92
  %136 = getelementptr inbounds nuw %struct.async, ptr %135, i32 0, i32 4
  %137 = load ptr, ptr %3, align 8, !tbaa !92
  %138 = call i32 @pthread_create(ptr noundef %136, ptr noundef null, ptr noundef @run_thread, ptr noundef %137) #13
  store i32 %138, ptr %11, align 4, !tbaa !16
  %139 = load i32, ptr %11, align 4, !tbaa !16
  %140 = icmp ne i32 %139, 0
  br i1 %140, label %141, label %147

141:                                              ; preds = %128
  %142 = call ptr @_(ptr noundef @.str.12)
  %143 = load i32, ptr %11, align 4, !tbaa !16
  %144 = call ptr @strerror(i32 noundef %143) #13
  %145 = call i32 (ptr, ...) @error(ptr noundef %142, ptr noundef %144)
  %146 = call i32 @const_error()
  store i32 2, ptr %10, align 4
  br label %148

147:                                              ; preds = %128
  store i32 0, ptr %10, align 4
  br label %148

148:                                              ; preds = %141, %147
  call void @llvm.lifetime.end.p0(i64 4, ptr %11) #13
  %149 = load i32, ptr %10, align 4
  switch i32 %149, label %184 [
    i32 0, label %150
    i32 2, label %151
  ]

150:                                              ; preds = %148
  store i32 0, ptr %2, align 4
  store i32 1, ptr %10, align 4
  br label %184

151:                                              ; preds = %148
  %152 = load i32, ptr %4, align 4, !tbaa !16
  %153 = icmp ne i32 %152, 0
  br i1 %153, label %154, label %156

154:                                              ; preds = %151
  %155 = getelementptr inbounds [2 x i32], ptr %6, i64 0, i64 0
  call void @close_pair(ptr noundef %155)
  br label %167

156:                                              ; preds = %151
  %157 = load ptr, ptr %3, align 8, !tbaa !92
  %158 = getelementptr inbounds nuw %struct.async, ptr %157, i32 0, i32 2
  %159 = load i32, ptr %158, align 8, !tbaa !94
  %160 = icmp ne i32 %159, 0
  br i1 %160, label %161, label %166

161:                                              ; preds = %156
  %162 = load ptr, ptr %3, align 8, !tbaa !92
  %163 = getelementptr inbounds nuw %struct.async, ptr %162, i32 0, i32 2
  %164 = load i32, ptr %163, align 8, !tbaa !94
  %165 = call i32 @close(i32 noundef %164)
  br label %166

166:                                              ; preds = %161, %156
  br label %167

167:                                              ; preds = %166, %154
  %168 = load i32, ptr %5, align 4, !tbaa !16
  %169 = icmp ne i32 %168, 0
  br i1 %169, label %170, label %172

170:                                              ; preds = %167
  %171 = getelementptr inbounds [2 x i32], ptr %7, i64 0, i64 0
  call void @close_pair(ptr noundef %171)
  br label %183

172:                                              ; preds = %167
  %173 = load ptr, ptr %3, align 8, !tbaa !92
  %174 = getelementptr inbounds nuw %struct.async, ptr %173, i32 0, i32 3
  %175 = load i32, ptr %174, align 4, !tbaa !96
  %176 = icmp ne i32 %175, 0
  br i1 %176, label %177, label %182

177:                                              ; preds = %172
  %178 = load ptr, ptr %3, align 8, !tbaa !92
  %179 = getelementptr inbounds nuw %struct.async, ptr %178, i32 0, i32 3
  %180 = load i32, ptr %179, align 4, !tbaa !96
  %181 = call i32 @close(i32 noundef %180)
  br label %182

182:                                              ; preds = %177, %172
  br label %183

183:                                              ; preds = %182, %170
  store i32 -1, ptr %2, align 4
  store i32 1, ptr %10, align 4
  br label %184

184:                                              ; preds = %183, %150, %148, %69, %33
  call void @llvm.lifetime.end.p0(i64 4, ptr %9) #13
  call void @llvm.lifetime.end.p0(i64 4, ptr %8) #13
  call void @llvm.lifetime.end.p0(i64 8, ptr %7) #13
  call void @llvm.lifetime.end.p0(i64 8, ptr %6) #13
  call void @llvm.lifetime.end.p0(i64 4, ptr %5) #13
  call void @llvm.lifetime.end.p0(i64 4, ptr %4) #13
  %185 = load i32, ptr %2, align 4
  ret i32 %185
}