; Function Attrs: nounwind uwtable
define dso_local range(i32 -1, 1) i32 @start_async(ptr noundef %0) local_unnamed_addr #3 {
  %2 = alloca [2 x i32], align 4
  %3 = alloca [2 x i32], align 4
  call void @llvm.lifetime.start.p0(i64 8, ptr nonnull %2) #21
  call void @llvm.lifetime.start.p0(i64 8, ptr nonnull %3) #21
  %4 = getelementptr inbounds nuw i8, ptr %0, i64 16
  %5 = load i32, ptr %4, align 8, !tbaa !83
  %6 = icmp slt i32 %5, 0
  br i1 %6, label %7, label %21

7:                                                ; preds = %1
  %8 = call i32 @pipe(ptr noundef nonnull %2) #21
  %9 = icmp slt i32 %8, 0
  br i1 %9, label %10, label %18

10:                                               ; preds = %7
  %11 = getelementptr inbounds nuw i8, ptr %0, i64 20
  %12 = load i32, ptr %11, align 4, !tbaa !85
  %13 = icmp sgt i32 %12, 0
  br i1 %13, label %14, label %16

14:                                               ; preds = %10
  %15 = call i32 @close(i32 noundef %12) #21
  br label %16

16:                                               ; preds = %14, %10
  %17 = call i32 (ptr, ...) @error_errno(ptr noundef nonnull @.str.11) #21
  br label %.thread

18:                                               ; preds = %7
  %19 = getelementptr inbounds nuw i8, ptr %2, i64 4
  %20 = load i32, ptr %19, align 4, !tbaa !18
  store i32 %20, ptr %4, align 8, !tbaa !83
  br label %21

21:                                               ; preds = %18, %1
  %22 = getelementptr inbounds nuw i8, ptr %0, i64 20
  %23 = load i32, ptr %22, align 4, !tbaa !85
  %24 = icmp slt i32 %23, 0
  br i1 %24, label %25, label %41

25:                                               ; preds = %21
  %26 = call i32 @pipe(ptr noundef nonnull %3) #21
  %27 = icmp slt i32 %26, 0
  br i1 %27, label %28, label %39

28:                                               ; preds = %25
  br i1 %6, label %29, label %34

29:                                               ; preds = %28
  %30 = load i32, ptr %2, align 4, !tbaa !18
  %31 = call i32 @close(i32 noundef %30) #21
  %32 = getelementptr inbounds nuw i8, ptr %2, i64 4
  %33 = load i32, ptr %32, align 4, !tbaa !18
  br label %.sink.split

34:                                               ; preds = %28
  %35 = load i32, ptr %4, align 8, !tbaa !83
  %.not50 = icmp eq i32 %35, 0
  br i1 %.not50, label %37, label %.sink.split

.sink.split:                                      ; preds = %34, %29
  %.sink = phi i32 [ %33, %29 ], [ %35, %34 ]
  %36 = call i32 @close(i32 noundef %.sink) #21
  br label %37

37:                                               ; preds = %.sink.split, %34
  %38 = call i32 (ptr, ...) @error_errno(ptr noundef nonnull @.str.11) #21
  br label %.thread

39:                                               ; preds = %25
  %40 = load i32, ptr %3, align 4, !tbaa !18
  store i32 %40, ptr %22, align 4, !tbaa !85
  br label %41

41:                                               ; preds = %39, %21
  %42 = phi i32 [ %40, %39 ], [ %23, %21 ]
  br i1 %6, label %43, label %45

43:                                               ; preds = %41
  %44 = load i32, ptr %2, align 4, !tbaa !18
  br label %47

45:                                               ; preds = %41
  %46 = load i32, ptr %4, align 8, !tbaa !83
  %.not = icmp eq i32 %46, 0
  %. = select i1 %.not, i32 -1, i32 %46
  br label %47

47:                                               ; preds = %45, %43
  %.038 = phi i32 [ %44, %43 ], [ %., %45 ]
  %48 = getelementptr inbounds nuw i8, ptr %3, i64 4
  %49 = load i32, ptr %48, align 4
  %.not46 = icmp eq i32 %42, 0
  %.51 = select i1 %.not46, i32 -1, i32 %42
  %.037 = select i1 %24, i32 %49, i32 %.51
  %.b = load i1, ptr @main_thread_set, align 4
  br i1 %.b, label %54, label %50

50:                                               ; preds = %47
  store i1 true, ptr @main_thread_set, align 4
  %51 = tail call i64 @pthread_self() #23
  store i64 %51, ptr @main_thread, align 8, !tbaa !82
  %52 = call i32 @pthread_key_create(ptr noundef nonnull @async_key, ptr noundef null) #21
  %53 = call i32 @pthread_key_create(ptr noundef nonnull @async_die_counter, ptr noundef null) #21
  call void @set_die_routine(ptr noundef nonnull @die_async) #21
  call void @set_die_is_recursing_routine(ptr noundef nonnull @async_die_is_recursing) #21
  br label %54

54:                                               ; preds = %50, %47
  %55 = icmp sgt i32 %.038, -1
  br i1 %55, label %56, label %set_cloexec.exit

56:                                               ; preds = %54
  %57 = call i32 (i32, i32, ...) @fcntl64(i32 noundef %.038, i32 noundef 1) #21
  %58 = icmp sgt i32 %57, -1
  br i1 %58, label %59, label %set_cloexec.exit

59:                                               ; preds = %56
  %60 = or i32 %57, 1
  %61 = call i32 (i32, i32, ...) @fcntl64(i32 noundef %.038, i32 noundef 2, i32 noundef %60) #21
  br label %set_cloexec.exit

set_cloexec.exit:                                 ; preds = %59, %56, %54
  %62 = icmp sgt i32 %.037, -1
  br i1 %62, label %63, label %set_cloexec.exit53

63:                                               ; preds = %set_cloexec.exit
  %64 = call i32 (i32, i32, ...) @fcntl64(i32 noundef %.037, i32 noundef 1) #21
  %65 = icmp sgt i32 %64, -1
  br i1 %65, label %66, label %set_cloexec.exit53

66:                                               ; preds = %63
  %67 = or i32 %64, 1
  %68 = call i32 (i32, i32, ...) @fcntl64(i32 noundef %.037, i32 noundef 2, i32 noundef %67) #21
  br label %set_cloexec.exit53

set_cloexec.exit53:                               ; preds = %66, %63, %set_cloexec.exit
  %69 = getelementptr inbounds nuw i8, ptr %0, i64 32
  store i32 %.038, ptr %69, align 8, !tbaa !86
  %70 = getelementptr inbounds nuw i8, ptr %0, i64 36
  store i32 %.037, ptr %70, align 4, !tbaa !87
  %71 = getelementptr inbounds nuw i8, ptr %0, i64 24
  %72 = call i32 @pthread_create(ptr noundef nonnull %71, ptr noundef null, ptr noundef nonnull @run_thread, ptr noundef nonnull %0) #21
  %.not47 = icmp eq i32 %72, 0
  br i1 %.not47, label %.thread, label %73

73:                                               ; preds = %set_cloexec.exit53
  %74 = load i32, ptr @git_gettext_enabled, align 4, !tbaa !18
  %.not.i = icmp eq i32 %74, 0
  br i1 %.not.i, label %77, label %75

75:                                               ; preds = %73
  %76 = call ptr @dcgettext(ptr noundef null, ptr noundef nonnull @.str.12, i32 noundef 5) #21
  br label %77

77:                                               ; preds = %73, %75
  %.0.i = phi ptr [ %76, %75 ], [ @.str.12, %73 ]
  %78 = call ptr @strerror(i32 noundef %72) #21
  %79 = call i32 (ptr, ...) @error(ptr noundef %.0.i, ptr noundef %78) #21
  br i1 %6, label %80, label %85

80:                                               ; preds = %77
  %81 = load i32, ptr %2, align 4, !tbaa !18
  %82 = call i32 @close(i32 noundef %81) #21
  %83 = getelementptr inbounds nuw i8, ptr %2, i64 4
  %84 = load i32, ptr %83, align 4, !tbaa !18
  br label %.sink.split56

85:                                               ; preds = %77
  %86 = load i32, ptr %4, align 8, !tbaa !83
  %.not48 = icmp eq i32 %86, 0
  br i1 %.not48, label %88, label %.sink.split56

.sink.split56:                                    ; preds = %85, %80
  %.sink57 = phi i32 [ %84, %80 ], [ %86, %85 ]
  %87 = call i32 @close(i32 noundef %.sink57) #21
  br label %88

88:                                               ; preds = %.sink.split56, %85
  br i1 %24, label %89, label %95

89:                                               ; preds = %88
  %90 = load i32, ptr %3, align 4, !tbaa !18
  %91 = call i32 @close(i32 noundef %90) #21
  %92 = getelementptr inbounds nuw i8, ptr %3, i64 4
  %93 = load i32, ptr %92, align 4, !tbaa !18
  %94 = call i32 @close(i32 noundef %93) #21
  br label %.thread

95:                                               ; preds = %88
  %96 = load i32, ptr %22, align 4, !tbaa !85
  %.not49 = icmp eq i32 %96, 0
  br i1 %.not49, label %.thread, label %97

97:                                               ; preds = %95
  %98 = call i32 @close(i32 noundef %96) #21
  br label %.thread

.thread:                                          ; preds = %set_cloexec.exit53, %89, %97, %95, %37, %16
  %.0 = phi i32 [ -1, %16 ], [ -1, %37 ], [ -1, %95 ], [ -1, %97 ], [ -1, %89 ], [ 0, %set_cloexec.exit53 ]
  call void @llvm.lifetime.end.p0(i64 8, ptr nonnull %3) #21
  call void @llvm.lifetime.end.p0(i64 8, ptr nonnull %2) #21
  ret i32 %.0
}